target datalayout = "e-m:e-p270:32:32-p271:32:32-p272:64:64-i64:64-i128:128-f80:128-n8:16:32:64-S128"
target triple = "x86_64-pc-linux-gnu"

%"class.nanogui::TextArea" = type { %"class.nanogui::Widget.base", %"class.std::vector.4", %"class.nanogui::Color", %"class.nanogui::Color", %"class.nanogui::Color", %"class.std::__cxx11::basic_string", %"struct.nanogui::Array", %"struct.nanogui::Array", i32, i8, %"struct.nanogui::Array", %"struct.nanogui::Array" }
%"class.nanogui::Widget.base" = type <{ %"class.nanogui::Object.base", [4 x i8], ptr, %"class.nanogui::ref", %"class.nanogui::ref.0", %"struct.nanogui::Array", %"struct.nanogui::Array", %"struct.nanogui::Array", %"class.std::vector", i8, i8, i8, i8, [4 x i8], %"class.std::__cxx11::basic_string", i32, float, i32 }>
%"class.nanogui::Object.base" = type <{ ptr, %"struct.std::atomic" }>
%"struct.std::atomic" = type { %"struct.std::__atomic_base" }
%"struct.std::__atomic_base" = type { i32 }
%"class.nanogui::ref" = type { ptr }
%"class.nanogui::ref.0" = type { ptr }
%"class.std::vector" = type { %"struct.std::_Vector_base" }
%"struct.std::_Vector_base" = type { %"struct.std::_Vector_base<nanogui::Widget *, std::allocator<nanogui::Widget *>>::_Vector_impl" }
%"struct.std::_Vector_base<nanogui::Widget *, std::allocator<nanogui::Widget *>>::_Vector_impl" = type { %"struct.std::_Vector_base<nanogui::Widget *, std::allocator<nanogui::Widget *>>::_Vector_impl_data" }
%"struct.std::_Vector_base<nanogui::Widget *, std::allocator<nanogui::Widget *>>::_Vector_impl_data" = type { ptr, ptr, ptr }
%"class.std::vector.4" = type { %"struct.std::_Vector_base.5" }
%"struct.std::_Vector_base.5" = type { %"struct.std::_Vector_base<nanogui::TextArea::Block, std::allocator<nanogui::TextArea::Block>>::_Vector_impl" }
%"struct.std::_Vector_base<nanogui::TextArea::Block, std::allocator<nanogui::TextArea::Block>>::_Vector_impl" = type { %"struct.std::_Vector_base<nanogui::TextArea::Block, std::allocator<nanogui::TextArea::Block>>::_Vector_impl_data" }
%"struct.std::_Vector_base<nanogui::TextArea::Block, std::allocator<nanogui::TextArea::Block>>::_Vector_impl_data" = type { ptr, ptr, ptr }
%"class.nanogui::Color" = type { %"struct.nanogui::Array.9" }
%"struct.nanogui::Array.9" = type { [4 x float] }
%"class.std::__cxx11::basic_string" = type { %"struct.std::__cxx11::basic_string<char>::_Alloc_hider", i64, %union.anon }
%"struct.std::__cxx11::basic_string<char>::_Alloc_hider" = type { ptr }
%union.anon = type { i64, [8 x i8] }
%"struct.nanogui::Array" = type { [2 x i32] }

; Function Attrs: mustprogress nounwind uwtable
define linkonce_odr hidden noundef nonnull align 4 dereferenceable(4) ptr @_ZN7nanogui5ArrayIiLm2EEixEm(ptr noundef nonnull align 4 dereferenceable(8) %0, i64 noundef %1) #2 comdat align 2 {
  %3 = alloca ptr, align 8
  %4 = alloca i64, align 8
  store ptr %0, ptr %3, align 8
  store i64 %1, ptr %4, align 8
  %5 = load ptr, ptr %3, align 8
  %6 = getelementptr inbounds %"struct.nanogui::Array", ptr %5, i32 0, i32 0
  %7 = load i64, ptr %4, align 8
  %8 = getelementptr inbounds [2 x i32], ptr %6, i64 0, i64 %7
  ret ptr %8
}

; Function Attrs: mustprogress nounwind uwtable
define linkonce_odr hidden void @_ZN7nanogui5ArrayIiLm2EEC2Ev(ptr noundef nonnull align 4 dereferenceable(8) %0) unnamed_addr #2 comdat align 2 {
  %2 = alloca ptr, align 8
  store ptr %0, ptr %2, align 8
  ret void
}

; Function Attrs: mustprogress uwtable
define linkonce_odr hidden i64 @_ZN7nanoguiplERKNS_5ArrayIiLm2EEES3_(ptr noundef nonnull align 4 dereferenceable(8) %0, ptr noundef nonnull align 4 dereferenceable(8) %1) #0 comdat {
  %3 = alloca %"struct.nanogui::Array", align 4
  %4 = alloca ptr, align 8
  %5 = alloca ptr, align 8
  %6 = alloca i64, align 8
  store ptr %0, ptr %4, align 8
  store ptr %1, ptr %5, align 8
  call void @_ZN7nanogui5ArrayIiLm2EEC2Ev(ptr noundef nonnull align 4 dereferenceable(8) %3)
  store i64 0, ptr %6, align 8
  br label %7

7:                                                ; preds = %24, %2
  %8 = load i64, ptr %6, align 8
  %9 = icmp ult i64 %8, 2
  br i1 %9, label %10, label %27

10:                                               ; preds = %7
  %11 = load ptr, ptr %4, align 8
  %12 = getelementptr inbounds %"struct.nanogui::Array", ptr %11, i32 0, i32 0
  %13 = load i64, ptr %6, align 8
  %14 = getelementptr inbounds [2 x i32], ptr %12, i64 0, i64 %13
  %15 = load i32, ptr %14, align 4
  %16 = load ptr, ptr %5, align 8
  %17 = getelementptr inbounds %"struct.nanogui::Array", ptr %16, i32 0, i32 0
  %18 = load i64, ptr %6, align 8
  %19 = getelementptr inbounds [2 x i32], ptr %17, i64 0, i64 %18
  %20 = load i32, ptr %19, align 4
  %21 = add nsw i32 %15, %20
  %22 = load i64, ptr %6, align 8
  %23 = call noundef nonnull align 4 dereferenceable(4) ptr @_ZN7nanogui5ArrayIiLm2EEixEm(ptr noundef nonnull align 4 dereferenceable(8) %3, i64 noundef %22)
  store i32 %21, ptr %23, align 4
  br label %24

24:                                               ; preds = %10
  %25 = load i64, ptr %6, align 8
  %26 = add i64 %25, 1
  store i64 %26, ptr %6, align 8
  br label %7, !llvm.loop !11

27:                                               ; preds = %7
  %28 = getelementptr inbounds %"struct.nanogui::Array", ptr %3, i32 0, i32 0
  %29 = load i64, ptr %28, align 4
  ret i64 %29
}

; Function Attrs: mustprogress nounwind uwtable
define linkonce_odr hidden void @_ZN7nanogui5ArrayIiLm2EEC2Ei(ptr noundef nonnull align 4 dereferenceable(8) %0, i32 noundef %1) unnamed_addr #2 comdat align 2 {
  %3 = alloca ptr, align 8
  %4 = alloca i32, align 4
  %5 = alloca i64, align 8
  store ptr %0, ptr %3, align 8
  store i32 %1, ptr %4, align 4
  %6 = load ptr, ptr %3, align 8
  store i64 0, ptr %5, align 8
  br label %7

7:                                                ; preds = %15, %2
  %8 = load i64, ptr %5, align 8
  %9 = icmp ult i64 %8, 2
  br i1 %9, label %10, label %18

10:                                               ; preds = %7
  %11 = load i32, ptr %4, align 4
  %12 = getelementptr inbounds %"struct.nanogui::Array", ptr %6, i32 0, i32 0
  %13 = load i64, ptr %5, align 8
  %14 = getelementptr inbounds [2 x i32], ptr %12, i64 0, i64 %13
  store i32 %11, ptr %14, align 4
  br label %15

15:                                               ; preds = %10
  %16 = load i64, ptr %5, align 8
  %17 = add i64 %16, 1
  store i64 %17, ptr %5, align 8
  br label %7, !llvm.loop !5

18:                                               ; preds = %7
  ret void
}

; Function Attrs: mustprogress uwtable
define hidden i64 @_ZNK7nanogui8TextArea14preferred_sizeEP10NVGcontext(ptr noundef nonnull align 8 dereferenceable(288) %0, ptr noundef %1) unnamed_addr #0 align 2 {
  %3 = alloca %"struct.nanogui::Array", align 4
  %4 = alloca ptr, align 8
  %5 = alloca ptr, align 8
  %6 = alloca %"struct.nanogui::Array", align 4
  store ptr %0, ptr %4, align 8
  store ptr %1, ptr %5, align 8
  %7 = load ptr, ptr %4, align 8
  %8 = getelementptr inbounds %"class.nanogui::TextArea", ptr %7, i32 0, i32 7
  %9 = getelementptr inbounds %"class.nanogui::TextArea", ptr %7, i32 0, i32 8
  %10 = load i32, ptr %9, align 8
  %11 = mul nsw i32 %10, 2
  call void @_ZN7nanogui5ArrayIiLm2EEC2Ei(ptr noundef nonnull align 4 dereferenceable(8) %6, i32 noundef %11)
  %12 = call i64 @_ZN7nanoguiplERKNS_5ArrayIiLm2EEES3_(ptr noundef nonnull align 4 dereferenceable(8) %8, ptr noundef nonnull align 4 dereferenceable(8) %6)
  %13 = getelementptr inbounds %"struct.nanogui::Array", ptr %3, i32 0, i32 0
  store i64 %12, ptr %13, align 4
  %14 = getelementptr inbounds %"struct.nanogui::Array", ptr %3, i32 0, i32 0
  %15 = load i64, ptr %14, align 4
  ret i64 %15
}