; Function Attrs: mustprogress nofree norecurse nosync nounwind willreturn memory(argmem: read) uwtable
define hidden i64 @_ZNK7nanogui8TextArea14preferred_sizeEP10NVGcontext(ptr nocapture noundef nonnull readonly align 8 dereferenceable(288) %0, ptr nocapture readnone %1) unnamed_addr #7 align 2 {
_ZN7nanogui5ArrayIiLm2EEC2Ei.exit.critedge:
  %2 = getelementptr inbounds i8, ptr %0, i64 256
  %3 = getelementptr inbounds i8, ptr %0, i64 264
  %4 = load i32, ptr %3, align 8
  %5 = shl nsw i32 %4, 1
  %6 = load i32, ptr %2, align 8
  %7 = add nsw i32 %6, %5
  %8 = getelementptr inbounds i8, ptr %0, i64 260
  %9 = load i32, ptr %8, align 4
  %10 = add nsw i32 %5, %9
  %.sroa.4.0.insert.ext = zext i32 %10 to i64
  %.sroa.4.0.insert.shift = shl nuw i64 %.sroa.4.0.insert.ext, 32
  %.sroa.05.0.insert.ext = zext i32 %7 to i64
  %.sroa.05.0.insert.insert = or disjoint i64 %.sroa.4.0.insert.shift, %.sroa.05.0.insert.ext
  ret i64 %.sroa.05.0.insert.insert
}